; Function Attrs: mustprogress nounwind uwtable
define hidden void @_ZN13TemplateTable11wide_dstoreEv() local_unnamed_addr #0 align 2 {
  %1 = alloca %class.Address, align 8
  %2 = alloca %class.Address, align 8
  %3 = alloca %class.Address, align 16
  tail call void @_ZN13TemplateTable10transitionE8TosStateS0_(i32 noundef 9, i32 noundef 9) #8
  %4 = load ptr, ptr @_ZN13TemplateTable5_masmE, align 8
  %5 = load i8, ptr @PrintInterpreter, align 1
  %6 = trunc i8 %5 to i1
  br i1 %6, label %7, label %_ZN12Disassembler4hookI25InterpreterMacroAssemblerEEPT_PKciS3_.exit

7:                                                ; preds = %0
  tail call void @_ZN12Disassembler5_hookEPKciP14MacroAssembler(ptr noundef nonnull @.str, i32 noundef 1057, ptr noundef %4) #8
  br label %_ZN12Disassembler4hookI25InterpreterMacroAssemblerEEPT_PKciS3_.exit

_ZN12Disassembler4hookI25InterpreterMacroAssemblerEEPT_PKciS3_.exit: ; preds = %0, %7
  tail call void @_ZN25InterpreterMacroAssembler5pop_dE11XMMRegister(ptr noundef nonnull align 8 dereferenceable(48) %4, i32 0) #8
  tail call void @_ZN13TemplateTable17locals_index_wideE8Register(i32 3)
  %8 = load ptr, ptr @_ZN13TemplateTable5_masmE, align 8
  %9 = load i8, ptr @PrintInterpreter, align 1
  %10 = trunc i8 %9 to i1
  br i1 %10, label %11, label %_ZN12Disassembler4hookI25InterpreterMacroAssemblerEEPT_PKciS3_.exit4

11:                                               ; preds = %_ZN12Disassembler4hookI25InterpreterMacroAssemblerEEPT_PKciS3_.exit
  tail call void @_ZN12Disassembler5_hookEPKciP14MacroAssembler(ptr noundef nonnull @.str, i32 noundef 1059, ptr noundef %8) #8
  br label %_ZN12Disassembler4hookI25InterpreterMacroAssemblerEEPT_PKciS3_.exit4

_ZN12Disassembler4hookI25InterpreterMacroAssemblerEEPT_PKciS3_.exit4: ; preds = %_ZN12Disassembler4hookI25InterpreterMacroAssemblerEEPT_PKciS3_.exit, %11
  store <4 x i32> <i32 14, i32 3, i32 -1, i32 3>, ptr %3, align 16, !alias.scope !196
  %12 = getelementptr inbounds i8, ptr %3, i64 16
  store i32 -8, ptr %12, align 16, !alias.scope !196
  %13 = getelementptr inbounds i8, ptr %3, i64 20
  store i8 0, ptr %13, align 4, !alias.scope !196
  %14 = getelementptr inbounds i8, ptr %3, i64 24
  store ptr getelementptr inbounds inrange(-16, 72) (i8, ptr @_ZTV10Relocation, i64 16), ptr %14, align 8, !alias.scope !196
  %15 = getelementptr inbounds i8, ptr %3, i64 32
  store ptr null, ptr %15, align 16, !alias.scope !196
  %16 = getelementptr inbounds i8, ptr %3, i64 40
  store i32 0, ptr %16, align 8, !alias.scope !196
  call void @llvm.lifetime.start.p0(i64 64, ptr nonnull %2)
  call void @llvm.memcpy.p0.p0.i64(ptr noundef nonnull align 8 dereferenceable(21) %2, ptr noundef nonnull align 16 dereferenceable(21) %3, i64 21, i1 false)
  %17 = getelementptr inbounds i8, ptr %2, i64 24
  %18 = load ptr, ptr getelementptr inbounds inrange(-32, 56) (i8, ptr @_ZTV10Relocation, i64 32), align 8
  call void %18(ptr noundef nonnull align 8 dereferenceable(20) %14, ptr noundef nonnull align 8 dereferenceable(40) %17) #8
  call void @llvm.lifetime.start.p0(i64 64, ptr nonnull %1)
  call void @llvm.memcpy.p0.p0.i64(ptr noundef nonnull align 8 dereferenceable(21) %1, ptr noundef nonnull align 8 dereferenceable(21) %2, i64 21, i1 false)
  %19 = getelementptr inbounds i8, ptr %1, i64 24
  %20 = load ptr, ptr %17, align 8
  %21 = getelementptr inbounds i8, ptr %20, i64 16
  %22 = load ptr, ptr %21, align 8
  call void %22(ptr noundef nonnull align 8 dereferenceable(20) %17, ptr noundef nonnull align 8 dereferenceable(40) %19) #8
  call void @_ZN9Assembler5movsdE7Address11XMMRegister(ptr noundef nonnull align 8 dereferenceable(40) %8, ptr noundef nonnull %1, i32 0) #8
  call void @llvm.lifetime.end.p0(i64 64, ptr nonnull %1)
  call void @llvm.lifetime.end.p0(i64 64, ptr nonnull %2)
  ret void
}